; Function Attrs: mustprogress nounwind uwtable
define internal fastcc void @_ZL23decodeRVCInstrRdRs1UImmRN4llvm6MCInstEjmPKNS_14MCDisassemblerE(ptr noundef nonnull align 8 dereferenceable(128) %0, i32 noundef %1) unnamed_addr #0 {
  %3 = getelementptr inbounds nuw i8, ptr %0, i64 16
  %4 = tail call noundef i64 @_ZNK4llvm15SmallVectorBaseIjE4sizeEv(ptr noundef nonnull align 8 dereferenceable(16) %3) #10
  %5 = add i64 %4, 1
  %6 = tail call noundef i64 @_ZNK4llvm15SmallVectorBaseIjE8capacityEv(ptr noundef nonnull align 8 dereferenceable(16) %3) #10
  %.not.i.i.i.i = icmp ugt i64 %5, %6
  br i1 %.not.i.i.i.i, label %7, label %_ZN4llvm6MCInst10addOperandENS_9MCOperandE.exit

7:                                                ; preds = %2
  %8 = getelementptr inbounds nuw i8, ptr %0, i64 32
  tail call void @_ZN4llvm15SmallVectorBaseIjE8grow_podEPvmm(ptr noundef nonnull align 8 dereferenceable(16) %3, ptr noundef nonnull %8, i64 noundef %5, i64 noundef 16) #10
  br label %_ZN4llvm6MCInst10addOperandENS_9MCOperandE.exit

_ZN4llvm6MCInst10addOperandENS_9MCOperandE.exit:  ; preds = %2, %7
  %9 = load ptr, ptr %3, align 8
  %10 = tail call noundef i64 @_ZNK4llvm15SmallVectorBaseIjE4sizeEv(ptr noundef nonnull align 8 dereferenceable(16) %3) #10
  %11 = getelementptr inbounds %"class.llvm::MCOperand", ptr %9, i64 %10
  store i8 1, ptr %11, align 1
  %.sroa.22.0..sroa_idx.i.i = getelementptr inbounds nuw i8, ptr %11, i64 8
  store i64 43, ptr %.sroa.22.0..sroa_idx.i.i, align 1
  %12 = tail call noundef i64 @_ZNK4llvm15SmallVectorBaseIjE4sizeEv(ptr noundef nonnull align 8 dereferenceable(16) %3) #10
  %13 = add i64 %12, 1
  tail call void @_ZN4llvm15SmallVectorBaseIjE8set_sizeEm(ptr noundef nonnull align 8 dereferenceable(16) %3, i64 noundef %13) #10
  %14 = load ptr, ptr %3, align 8
  %.sroa.0.0.copyload = load i8, ptr %14, align 8
  %.sroa.21.0..sroa_idx = getelementptr inbounds nuw i8, ptr %14, i64 8
  %.sroa.21.0.copyload = load i64, ptr %.sroa.21.0..sroa_idx, align 8
  %15 = tail call noundef i64 @_ZNK4llvm15SmallVectorBaseIjE4sizeEv(ptr noundef nonnull align 8 dereferenceable(16) %3) #10
  %16 = add i64 %15, 1
  %17 = tail call noundef i64 @_ZNK4llvm15SmallVectorBaseIjE8capacityEv(ptr noundef nonnull align 8 dereferenceable(16) %3) #10
  %.not.i.i.i.i10 = icmp ugt i64 %16, %17
  br i1 %.not.i.i.i.i10, label %18, label %_ZN4llvm6MCInst10addOperandENS_9MCOperandE.exit12

18:                                               ; preds = %_ZN4llvm6MCInst10addOperandENS_9MCOperandE.exit
  %19 = getelementptr inbounds nuw i8, ptr %0, i64 32
  tail call void @_ZN4llvm15SmallVectorBaseIjE8grow_podEPvmm(ptr noundef nonnull align 8 dereferenceable(16) %3, ptr noundef nonnull %19, i64 noundef %16, i64 noundef 16) #10
  br label %_ZN4llvm6MCInst10addOperandENS_9MCOperandE.exit12

_ZN4llvm6MCInst10addOperandENS_9MCOperandE.exit12: ; preds = %_ZN4llvm6MCInst10addOperandENS_9MCOperandE.exit, %18
  %20 = load ptr, ptr %3, align 8
  %21 = tail call noundef i64 @_ZNK4llvm15SmallVectorBaseIjE4sizeEv(ptr noundef nonnull align 8 dereferenceable(16) %3) #10
  %22 = getelementptr inbounds %"class.llvm::MCOperand", ptr %20, i64 %21
  store i8 %.sroa.0.0.copyload, ptr %22, align 1
  %.sroa.22.0..sroa_idx.i.i11 = getelementptr inbounds nuw i8, ptr %22, i64 8
  store i64 %.sroa.21.0.copyload, ptr %.sroa.22.0..sroa_idx.i.i11, align 1
  %23 = tail call noundef i64 @_ZNK4llvm15SmallVectorBaseIjE4sizeEv(ptr noundef nonnull align 8 dereferenceable(16) %3) #10
  %24 = add i64 %23, 1
  tail call void @_ZN4llvm15SmallVectorBaseIjE8set_sizeEm(ptr noundef nonnull align 8 dereferenceable(16) %3, i64 noundef %24) #10
  %25 = tail call noundef i64 @_ZNK4llvm15SmallVectorBaseIjE4sizeEv(ptr noundef nonnull align 8 dereferenceable(16) %3) #10
  %26 = add i64 %25, 1
  %27 = tail call noundef i64 @_ZNK4llvm15SmallVectorBaseIjE8capacityEv(ptr noundef nonnull align 8 dereferenceable(16) %3) #10
  %.not.i.i.i.i.i = icmp ugt i64 %26, %27
  br i1 %.not.i.i.i.i.i, label %28, label %_ZL17decodeUImmOperandILj6EEN4llvm14MCDisassembler12DecodeStatusERNS0_6MCInstEjlPKS1_.exit

28:                                               ; preds = %_ZN4llvm6MCInst10addOperandENS_9MCOperandE.exit12
  %29 = getelementptr inbounds nuw i8, ptr %0, i64 32
  tail call void @_ZN4llvm15SmallVectorBaseIjE8grow_podEPvmm(ptr noundef nonnull align 8 dereferenceable(16) %3, ptr noundef nonnull %29, i64 noundef %26, i64 noundef 16) #10
  br label %_ZL17decodeUImmOperandILj6EEN4llvm14MCDisassembler12DecodeStatusERNS0_6MCInstEjlPKS1_.exit

_ZL17decodeUImmOperandILj6EEN4llvm14MCDisassembler12DecodeStatusERNS0_6MCInstEjlPKS1_.exit: ; preds = %_ZN4llvm6MCInst10addOperandENS_9MCOperandE.exit12, %28
  %30 = lshr i32 %1, 7
  %31 = and i32 %30, 32
  %32 = lshr i32 %1, 2
  %33 = and i32 %32, 31
  %34 = or disjoint i32 %31, %33
  %35 = zext nneg i32 %34 to i64
  %36 = load ptr, ptr %3, align 8
  %37 = tail call noundef i64 @_ZNK4llvm15SmallVectorBaseIjE4sizeEv(ptr noundef nonnull align 8 dereferenceable(16) %3) #10
  %38 = getelementptr inbounds %"class.llvm::MCOperand", ptr %36, i64 %37
  store i8 2, ptr %38, align 1
  %.sroa.22.0..sroa_idx.i.i.i = getelementptr inbounds nuw i8, ptr %38, i64 8
  store i64 %35, ptr %.sroa.22.0..sroa_idx.i.i.i, align 1
  %39 = tail call noundef i64 @_ZNK4llvm15SmallVectorBaseIjE4sizeEv(ptr noundef nonnull align 8 dereferenceable(16) %3) #10
  %40 = add i64 %39, 1
  tail call void @_ZN4llvm15SmallVectorBaseIjE8set_sizeEm(ptr noundef nonnull align 8 dereferenceable(16) %3, i64 noundef %40) #10
  ret void
}